target datalayout = "e-m:e-p270:32:32-p271:32:32-p272:64:64-i64:64-i128:128-f80:128-n8:16:32:64-S128"
target triple = "x86_64-pc-linux-gnu"

%struct._PyArgv = type { i64, i32, ptr, ptr }

; Function Attrs: nounwind uwtable
define dso_local i32 @Py_BytesMain(i32 noundef %0, ptr noundef %1) #0 {
  %3 = alloca i32, align 4
  %4 = alloca ptr, align 8
  %5 = alloca %struct._PyArgv, align 8
  store i32 %0, ptr %3, align 4, !tbaa !4
  store ptr %1, ptr %4, align 8, !tbaa !199
  call void @llvm.lifetime.start.p0(i64 32, ptr %5) #13
  %6 = getelementptr inbounds nuw %struct._PyArgv, ptr %5, i32 0, i32 0
  %7 = load i32, ptr %3, align 4, !tbaa !4
  %8 = sext i32 %7 to i64
  store i64 %8, ptr %6, align 8, !tbaa !190
  %9 = getelementptr inbounds nuw %struct._PyArgv, ptr %5, i32 0, i32 1
  store i32 1, ptr %9, align 8, !tbaa !193
  %10 = getelementptr i8, ptr %5, i64 12
  call void @llvm.memset.p0.i64(ptr align 4 %10, i8 0, i64 4, i1 false)
  %11 = getelementptr inbounds nuw %struct._PyArgv, ptr %5, i32 0, i32 2
  %12 = load ptr, ptr %4, align 8, !tbaa !199
  store ptr %12, ptr %11, align 8, !tbaa !194
  %13 = getelementptr inbounds nuw %struct._PyArgv, ptr %5, i32 0, i32 3
  store ptr null, ptr %13, align 8, !tbaa !195
  %14 = call i32 @pymain_main(ptr noundef %5)
  call void @llvm.lifetime.end.p0(i64 32, ptr %5) #13
  ret i32 %14
}