; Function Attrs: nounwind uwtable
define dso_local i32 @Py_BytesMain(i32 noundef %0, ptr noundef %1) local_unnamed_addr #0 {
  %3 = alloca %struct._PyArgv, align 8
  call void @llvm.lifetime.start.p0(i64 32, ptr nonnull %3) #14
  %4 = sext i32 %0 to i64
  store i64 %4, ptr %3, align 8, !tbaa !196
  %5 = getelementptr inbounds nuw i8, ptr %3, i64 8
  store i32 1, ptr %5, align 8, !tbaa !205
  %6 = getelementptr inbounds nuw i8, ptr %3, i64 12
  store i32 0, ptr %6, align 4
  %7 = getelementptr inbounds nuw i8, ptr %3, i64 16
  store ptr %1, ptr %7, align 8, !tbaa !206
  %8 = getelementptr inbounds nuw i8, ptr %3, i64 24
  store ptr null, ptr %8, align 8, !tbaa !199
  %9 = call fastcc i32 @pymain_main(ptr noundef %3)
  call void @llvm.lifetime.end.p0(i64 32, ptr nonnull %3) #14
  ret i32 %9
}